(dp0
S'Carlo,'
p1
I0
sS'Shawah,'
p2
I0
sS'Walle,'
p3
I0
sS'Planke,'
p4
I0
sS'Impe,'
p5
I0
sS'Melkebeke,'
p6
I0
sS'Gordon,'
p7
I0
sS'Dr.'
p8
I5
sS'Capt.'
p9
I0
sS'Master.'
p10
I4
sS'Messemaeker,'
p11
I0
sS'Cruyssen,'
p12
I0
sS'Col.'
p13
I0
sS'Pelsmaeker,'
p14
I0
sS'Steen,'
p15
I0
sS'Mulder,'
p16
I0
sS'Miss.'
p17
I2
sS'Rev.'
p18
I0
sS'Mrs.'
p19
I3
sS'Ms.'
p20
I2
sS'Billiard,'
p21
I0
sS'Mme.'
p22
I0
sS'Major.'
p23
I0
sS'der'
p24
I0
sS'Mlle.'
p25
I0
sS'Mr.'
p26
I1
sS'Jonkheer.'
p27
I0
sS'y'
p28
I0
sS'the'
p29
I0
sS'Don.'
p30
I0
sS'Velde,'
p31
I0
s.